target datalayout = "e-m:e-p270:32:32-p271:32:32-p272:64:64-i64:64-i128:128-f80:128-n8:16:32:64-S128"
target triple = "x86_64-pc-linux-gnu"

%struct.PJconsts = type { ptr, ptr, ptr, ptr, ptr, ptr, ptr, ptr, ptr, ptr, ptr, ptr, i32, ptr, ptr, ptr, ptr, ptr, ptr, ptr, ptr, double, double, double, double, double, double, double, double, double, double, double, double, double, double, double, double, double, double, double, double, double, double, i32, i32, i32, i32, i32, i32, i32, i32, i32, i32, i32, ptr, ptr, ptr, ptr, ptr, ptr, double, double, double, double, double, double, double, double, double, double, double, i32, [7 x double], i32, ptr, ptr, double, double, i32, [4 x i8], %"class.std::shared_ptr", i8, double, i8, %"class.std::__cxx11::basic_string", %"class.std::__cxx11::basic_string", %"class.std::__cxx11::basic_string", i8, %"class.std::vector", i32, %"class.std::vector.3", i32, i8, i8, i8, ptr }
%"class.std::shared_ptr" = type { %"class.std::__shared_ptr" }
%"class.std::__shared_ptr" = type { ptr, %"class.std::__shared_count" }
%"class.std::__shared_count" = type { ptr }
%"class.std::__cxx11::basic_string" = type { %"struct.std::__cxx11::basic_string<char>::_Alloc_hider", i64, %union.anon }
%"struct.std::__cxx11::basic_string<char>::_Alloc_hider" = type { ptr }
%union.anon = type { i64, [8 x i8] }
%"class.std::vector" = type { %"struct.std::_Vector_base" }
%"struct.std::_Vector_base" = type { %"struct.std::_Vector_base<osgeo::proj::operation::GridDescription, std::allocator<osgeo::proj::operation::GridDescription>>::_Vector_impl" }
%"struct.std::_Vector_base<osgeo::proj::operation::GridDescription, std::allocator<osgeo::proj::operation::GridDescription>>::_Vector_impl" = type { %"struct.std::_Vector_base<osgeo::proj::operation::GridDescription, std::allocator<osgeo::proj::operation::GridDescription>>::_Vector_impl_data" }
%"struct.std::_Vector_base<osgeo::proj::operation::GridDescription, std::allocator<osgeo::proj::operation::GridDescription>>::_Vector_impl_data" = type { ptr, ptr, ptr }
%"class.std::vector.3" = type { %"struct.std::_Vector_base.4" }
%"struct.std::_Vector_base.4" = type { %"struct.std::_Vector_base<PJCoordOperation, std::allocator<PJCoordOperation>>::_Vector_impl" }
%"struct.std::_Vector_base<PJCoordOperation, std::allocator<PJCoordOperation>>::_Vector_impl" = type { %"struct.std::_Vector_base<PJCoordOperation, std::allocator<PJCoordOperation>>::_Vector_impl_data" }
%"struct.std::_Vector_base<PJCoordOperation, std::allocator<PJCoordOperation>>::_Vector_impl_data" = type { ptr, ptr, ptr }
%union.PROJVALUE = type { double }
%"struct.(anonymous namespace)::pj_ortho_data" = type { double, double, double, double, double, i32, double, double }

@.str.1 = private unnamed_addr constant [7 x i8] c"ralpha\00", align 1

; Function Attrs: mustprogress uwtable
define hidden noundef ptr @_Z34pj_projection_specific_setup_orthoP8PJconsts(ptr noundef %0) #0 {
  %2 = alloca ptr, align 8
  %3 = alloca ptr, align 8
  %4 = alloca ptr, align 8
  %5 = alloca i32, align 4
  %6 = alloca double, align 8
  %7 = alloca %union.PROJVALUE, align 8
  store ptr %0, ptr %3, align 8, !tbaa !3
  call void @llvm.lifetime.start.p0(i64 8, ptr %4) #8
  %8 = call noalias ptr @calloc(i64 noundef 1, i64 noundef 64) #9
  store ptr %8, ptr %4, align 8, !tbaa !41
  %9 = load ptr, ptr %4, align 8, !tbaa !41
  %10 = icmp eq ptr null, %9
  br i1 %10, label %11, label %14

11:                                               ; preds = %1
  %12 = load ptr, ptr %3, align 8, !tbaa !3
  %13 = call noundef ptr @_Z21pj_default_destructorP8PJconstsi(ptr noundef %12, i32 noundef 4096)
  store ptr %13, ptr %2, align 8
  store i32 1, ptr %5, align 4
  br label %141

14:                                               ; preds = %1
  %15 = load ptr, ptr %4, align 8, !tbaa !41
  %16 = load ptr, ptr %3, align 8, !tbaa !3
  %17 = getelementptr inbounds nuw %struct.PJconsts, ptr %16, i32 0, i32 11
  store ptr %15, ptr %17, align 8, !tbaa !43
  %18 = load ptr, ptr %3, align 8, !tbaa !3
  %19 = getelementptr inbounds nuw %struct.PJconsts, ptr %18, i32 0, i32 61
  %20 = load double, ptr %19, align 8, !tbaa !44
  %21 = call double @sin(double noundef %20) #8, !tbaa !45
  %22 = load ptr, ptr %4, align 8, !tbaa !41
  %23 = getelementptr inbounds nuw %"struct.(anonymous namespace)::pj_ortho_data", ptr %22, i32 0, i32 0
  store double %21, ptr %23, align 8, !tbaa !46
  %24 = load ptr, ptr %3, align 8, !tbaa !3
  %25 = getelementptr inbounds nuw %struct.PJconsts, ptr %24, i32 0, i32 61
  %26 = load double, ptr %25, align 8, !tbaa !44
  %27 = call double @cos(double noundef %26) #8, !tbaa !45
  %28 = load ptr, ptr %4, align 8, !tbaa !41
  %29 = getelementptr inbounds nuw %"struct.(anonymous namespace)::pj_ortho_data", ptr %28, i32 0, i32 1
  store double %27, ptr %29, align 8, !tbaa !49
  %30 = load ptr, ptr %3, align 8, !tbaa !3
  %31 = getelementptr inbounds nuw %struct.PJconsts, ptr %30, i32 0, i32 61
  %32 = load double, ptr %31, align 8, !tbaa !44
  %33 = call double @llvm.fabs.f64(double %32)
  %34 = fsub double %33, 0x3FF921FB54442D18
  %35 = call double @llvm.fabs.f64(double %34)
  %36 = fcmp ole double %35, 1.000000e-10
  br i1 %36, label %37, label %45

37:                                               ; preds = %14
  %38 = load ptr, ptr %3, align 8, !tbaa !3
  %39 = getelementptr inbounds nuw %struct.PJconsts, ptr %38, i32 0, i32 61
  %40 = load double, ptr %39, align 8, !tbaa !44
  %41 = fcmp olt double %40, 0.000000e+00
  %42 = select i1 %41, i32 1, i32 0
  %43 = load ptr, ptr %4, align 8, !tbaa !41
  %44 = getelementptr inbounds nuw %"struct.(anonymous namespace)::pj_ortho_data", ptr %43, i32 0, i32 5
  store i32 %42, ptr %44, align 8, !tbaa !50
  br label %58

45:                                               ; preds = %14
  %46 = load ptr, ptr %3, align 8, !tbaa !3
  %47 = getelementptr inbounds nuw %struct.PJconsts, ptr %46, i32 0, i32 61
  %48 = load double, ptr %47, align 8, !tbaa !44
  %49 = call double @llvm.fabs.f64(double %48)
  %50 = fcmp ogt double %49, 1.000000e-10
  br i1 %50, label %51, label %54

51:                                               ; preds = %45
  %52 = load ptr, ptr %4, align 8, !tbaa !41
  %53 = getelementptr inbounds nuw %"struct.(anonymous namespace)::pj_ortho_data", ptr %52, i32 0, i32 5
  store i32 3, ptr %53, align 8, !tbaa !50
  br label %57

54:                                               ; preds = %45
  %55 = load ptr, ptr %4, align 8, !tbaa !41
  %56 = getelementptr inbounds nuw %"struct.(anonymous namespace)::pj_ortho_data", ptr %55, i32 0, i32 5
  store i32 2, ptr %56, align 8, !tbaa !50
  br label %57

57:                                               ; preds = %54, %51
  br label %58

58:                                               ; preds = %57, %37
  %59 = load ptr, ptr %3, align 8, !tbaa !3
  %60 = getelementptr inbounds nuw %struct.PJconsts, ptr %59, i32 0, i32 27
  %61 = load double, ptr %60, align 8, !tbaa !51
  %62 = fcmp oeq double %61, 0.000000e+00
  br i1 %62, label %63, label %68

63:                                               ; preds = %58
  %64 = load ptr, ptr %3, align 8, !tbaa !3
  %65 = getelementptr inbounds nuw %struct.PJconsts, ptr %64, i32 0, i32 14
  store ptr @_ZL15ortho_s_inverse5PJ_XYP8PJconsts, ptr %65, align 8, !tbaa !52
  %66 = load ptr, ptr %3, align 8, !tbaa !3
  %67 = getelementptr inbounds nuw %struct.PJconsts, ptr %66, i32 0, i32 13
  store ptr @_ZL15ortho_s_forward5PJ_LPP8PJconsts, ptr %67, align 8, !tbaa !53
  br label %122

68:                                               ; preds = %58
  %69 = load ptr, ptr %3, align 8, !tbaa !3
  %70 = getelementptr inbounds nuw %struct.PJconsts, ptr %69, i32 0, i32 27
  %71 = load double, ptr %70, align 8, !tbaa !51
  %72 = load ptr, ptr %4, align 8, !tbaa !41
  %73 = getelementptr inbounds nuw %"struct.(anonymous namespace)::pj_ortho_data", ptr %72, i32 0, i32 0
  %74 = load double, ptr %73, align 8, !tbaa !46
  %75 = fmul double %71, %74
  %76 = load ptr, ptr %4, align 8, !tbaa !41
  %77 = getelementptr inbounds nuw %"struct.(anonymous namespace)::pj_ortho_data", ptr %76, i32 0, i32 0
  %78 = load double, ptr %77, align 8, !tbaa !46
  %79 = fneg double %75
  %80 = call double @llvm.fmuladd.f64(double %79, double %78, double 1.000000e+00)
  %81 = call double @sqrt(double noundef %80) #8, !tbaa !45
  %82 = fdiv double 1.000000e+00, %81
  %83 = load ptr, ptr %4, align 8, !tbaa !41
  %84 = getelementptr inbounds nuw %"struct.(anonymous namespace)::pj_ortho_data", ptr %83, i32 0, i32 2
  store double %82, ptr %84, align 8, !tbaa !54
  %85 = load ptr, ptr %3, align 8, !tbaa !3
  %86 = getelementptr inbounds nuw %struct.PJconsts, ptr %85, i32 0, i32 27
  %87 = load double, ptr %86, align 8, !tbaa !51
  %88 = load ptr, ptr %4, align 8, !tbaa !41
  %89 = getelementptr inbounds nuw %"struct.(anonymous namespace)::pj_ortho_data", ptr %88, i32 0, i32 2
  %90 = load double, ptr %89, align 8, !tbaa !54
  %91 = fmul double %87, %90
  %92 = load ptr, ptr %4, align 8, !tbaa !41
  %93 = getelementptr inbounds nuw %"struct.(anonymous namespace)::pj_ortho_data", ptr %92, i32 0, i32 0
  %94 = load double, ptr %93, align 8, !tbaa !46
  %95 = fmul double %91, %94
  %96 = load ptr, ptr %4, align 8, !tbaa !41
  %97 = getelementptr inbounds nuw %"struct.(anonymous namespace)::pj_ortho_data", ptr %96, i32 0, i32 1
  %98 = load double, ptr %97, align 8, !tbaa !49
  %99 = fmul double %95, %98
  %100 = load ptr, ptr %4, align 8, !tbaa !41
  %101 = getelementptr inbounds nuw %"struct.(anonymous namespace)::pj_ortho_data", ptr %100, i32 0, i32 3
  store double %99, ptr %101, align 8, !tbaa !55
  %102 = load ptr, ptr %3, align 8, !tbaa !3
  %103 = getelementptr inbounds nuw %struct.PJconsts, ptr %102, i32 0, i32 27
  %104 = load double, ptr %103, align 8, !tbaa !51
  %105 = load ptr, ptr %4, align 8, !tbaa !41
  %106 = getelementptr inbounds nuw %"struct.(anonymous namespace)::pj_ortho_data", ptr %105, i32 0, i32 1
  %107 = load double, ptr %106, align 8, !tbaa !49
  %108 = fmul double %104, %107
  %109 = load ptr, ptr %4, align 8, !tbaa !41
  %110 = getelementptr inbounds nuw %"struct.(anonymous namespace)::pj_ortho_data", ptr %109, i32 0, i32 1
  %111 = load double, ptr %110, align 8, !tbaa !49
  %112 = fneg double %108
  %113 = call double @llvm.fmuladd.f64(double %112, double %111, double 1.000000e+00)
  %114 = call double @sqrt(double noundef %113) #8, !tbaa !45
  %115 = fdiv double 1.000000e+00, %114
  %116 = load ptr, ptr %4, align 8, !tbaa !41
  %117 = getelementptr inbounds nuw %"struct.(anonymous namespace)::pj_ortho_data", ptr %116, i32 0, i32 4
  store double %115, ptr %117, align 8, !tbaa !56
  %118 = load ptr, ptr %3, align 8, !tbaa !3
  %119 = getelementptr inbounds nuw %struct.PJconsts, ptr %118, i32 0, i32 14
  store ptr @_ZL15ortho_e_inverse5PJ_XYP8PJconsts, ptr %119, align 8, !tbaa !52
  %120 = load ptr, ptr %3, align 8, !tbaa !3
  %121 = getelementptr inbounds nuw %struct.PJconsts, ptr %120, i32 0, i32 13
  store ptr @_ZL15ortho_e_forward5PJ_LPP8PJconsts, ptr %121, align 8, !tbaa !53
  br label %122

122:                                              ; preds = %68, %63
  call void @llvm.lifetime.start.p0(i64 8, ptr %6) #8
  call void @llvm.lifetime.start.p0(i64 8, ptr %7) #8
  %123 = load ptr, ptr %3, align 8, !tbaa !3
  %124 = getelementptr inbounds nuw %struct.PJconsts, ptr %123, i32 0, i32 0
  %125 = load ptr, ptr %124, align 8, !tbaa !57
  %126 = load ptr, ptr %3, align 8, !tbaa !3
  %127 = getelementptr inbounds nuw %struct.PJconsts, ptr %126, i32 0, i32 3
  %128 = load ptr, ptr %127, align 8, !tbaa !58
  %129 = call i64 @_Z8pj_paramP6pj_ctxP8ARG_listPKc(ptr noundef %125, ptr noundef %128, ptr noundef @.str.1)
  %130 = getelementptr inbounds nuw %union.PROJVALUE, ptr %7, i32 0, i32 0
  store i64 %129, ptr %130, align 8
  %131 = load double, ptr %7, align 8, !tbaa !59
  call void @llvm.lifetime.end.p0(i64 8, ptr %7) #8
  store double %131, ptr %6, align 8, !tbaa !60
  %132 = load double, ptr %6, align 8, !tbaa !60
  %133 = call double @sin(double noundef %132) #8, !tbaa !45
  %134 = load ptr, ptr %4, align 8, !tbaa !41
  %135 = getelementptr inbounds nuw %"struct.(anonymous namespace)::pj_ortho_data", ptr %134, i32 0, i32 6
  store double %133, ptr %135, align 8, !tbaa !61
  %136 = load double, ptr %6, align 8, !tbaa !60
  %137 = call double @cos(double noundef %136) #8, !tbaa !45
  %138 = load ptr, ptr %4, align 8, !tbaa !41
  %139 = getelementptr inbounds nuw %"struct.(anonymous namespace)::pj_ortho_data", ptr %138, i32 0, i32 7
  store double %137, ptr %139, align 8, !tbaa !62
  %140 = load ptr, ptr %3, align 8, !tbaa !3
  store ptr %140, ptr %2, align 8
  store i32 1, ptr %5, align 4
  call void @llvm.lifetime.end.p0(i64 8, ptr %6) #8
  br label %141

141:                                              ; preds = %122, %11
  call void @llvm.lifetime.end.p0(i64 8, ptr %4) #8
  %142 = load ptr, ptr %2, align 8
  ret ptr %142
}