; Function Attrs: mustprogress uwtable
define hidden noundef ptr @_Z34pj_projection_specific_setup_orthoP8PJconsts(ptr noundef %0) local_unnamed_addr #0 {
  %2 = tail call noalias dereferenceable_or_null(64) ptr @calloc(i64 noundef 1, i64 noundef 64) #5
  %3 = icmp eq ptr %2, null
  br i1 %3, label %4, label %6

4:                                                ; preds = %1
  %5 = tail call noundef ptr @_Z21pj_default_destructorP8PJconstsi(ptr noundef %0, i32 noundef 4096)
  br label %59

6:                                                ; preds = %1
  %7 = getelementptr inbounds nuw i8, ptr %0, i64 88
  store ptr %2, ptr %7, align 8, !tbaa !40
  %8 = getelementptr inbounds nuw i8, ptr %0, i64 448
  %9 = load double, ptr %8, align 8, !tbaa !41
  %10 = tail call double @sin(double noundef %9) #6, !tbaa !42
  store double %10, ptr %2, align 8, !tbaa !43
  %11 = tail call double @cos(double noundef %9) #6, !tbaa !42
  %12 = getelementptr inbounds nuw i8, ptr %2, i64 8
  store double %11, ptr %12, align 8, !tbaa !46
  %13 = tail call double @llvm.fabs.f64(double %9)
  %14 = fadd double %13, 0xBFF921FB54442D18
  %15 = tail call double @llvm.fabs.f64(double %14)
  %16 = fcmp ugt double %15, 1.000000e-10
  br i1 %16, label %21, label %17

17:                                               ; preds = %6
  %18 = fcmp olt double %9, 0.000000e+00
  %19 = zext i1 %18 to i32
  %20 = getelementptr inbounds nuw i8, ptr %2, i64 40
  store i32 %19, ptr %20, align 8, !tbaa !47
  br label %26

21:                                               ; preds = %6
  %22 = fcmp ogt double %13, 1.000000e-10
  %23 = getelementptr inbounds nuw i8, ptr %2, i64 40
  br i1 %22, label %24, label %25

24:                                               ; preds = %21
  store i32 3, ptr %23, align 8, !tbaa !47
  br label %26

25:                                               ; preds = %21
  store i32 2, ptr %23, align 8, !tbaa !47
  br label %26

26:                                               ; preds = %24, %25, %17
  %27 = getelementptr inbounds nuw i8, ptr %0, i64 216
  %28 = load double, ptr %27, align 8, !tbaa !48
  %29 = fcmp oeq double %28, 0.000000e+00
  br i1 %29, label %47, label %30

30:                                               ; preds = %26
  %31 = fneg double %10
  %32 = fmul double %28, %31
  %33 = tail call double @llvm.fmuladd.f64(double %32, double %10, double 1.000000e+00)
  %34 = tail call double @sqrt(double noundef %33) #6, !tbaa !42
  %35 = fdiv double 1.000000e+00, %34
  %36 = getelementptr inbounds nuw i8, ptr %2, i64 16
  store double %35, ptr %36, align 8, !tbaa !49
  %37 = fmul double %28, %35
  %38 = fmul double %10, %37
  %39 = fmul double %11, %38
  %40 = getelementptr inbounds nuw i8, ptr %2, i64 24
  store double %39, ptr %40, align 8, !tbaa !50
  %41 = fneg double %11
  %42 = fmul double %28, %41
  %43 = tail call double @llvm.fmuladd.f64(double %42, double %11, double 1.000000e+00)
  %44 = tail call double @sqrt(double noundef %43) #6, !tbaa !42
  %45 = fdiv double 1.000000e+00, %44
  %46 = getelementptr inbounds nuw i8, ptr %2, i64 32
  store double %45, ptr %46, align 8, !tbaa !51
  br label %47

47:                                               ; preds = %26, %30
  %_ZL15ortho_e_inverse5PJ_XYP8PJconsts.sink = phi ptr [ @_ZL15ortho_e_inverse5PJ_XYP8PJconsts, %30 ], [ @_ZL15ortho_s_inverse5PJ_XYP8PJconsts, %26 ]
  %_ZL15ortho_e_forward5PJ_LPP8PJconsts.sink = phi ptr [ @_ZL15ortho_e_forward5PJ_LPP8PJconsts, %30 ], [ @_ZL15ortho_s_forward5PJ_LPP8PJconsts, %26 ]
  %48 = getelementptr inbounds nuw i8, ptr %0, i64 112
  store ptr %_ZL15ortho_e_inverse5PJ_XYP8PJconsts.sink, ptr %48, align 8, !tbaa !52
  %49 = getelementptr inbounds nuw i8, ptr %0, i64 104
  store ptr %_ZL15ortho_e_forward5PJ_LPP8PJconsts.sink, ptr %49, align 8, !tbaa !53
  %50 = load ptr, ptr %0, align 8, !tbaa !54
  %51 = getelementptr inbounds nuw i8, ptr %0, i64 24
  %52 = load ptr, ptr %51, align 8, !tbaa !55
  %53 = tail call i64 @_Z8pj_paramP6pj_ctxP8ARG_listPKc(ptr noundef %50, ptr noundef %52, ptr noundef nonnull @.str.1)
  %54 = bitcast i64 %53 to double
  %55 = tail call double @sin(double noundef %54) #6, !tbaa !42
  %56 = getelementptr inbounds nuw i8, ptr %2, i64 48
  store double %55, ptr %56, align 8, !tbaa !56
  %57 = tail call double @cos(double noundef %54) #6, !tbaa !42
  %58 = getelementptr inbounds nuw i8, ptr %2, i64 56
  store double %57, ptr %58, align 8, !tbaa !57
  br label %59

59:                                               ; preds = %47, %4
  %.0 = phi ptr [ %5, %4 ], [ %0, %47 ]
  ret ptr %.0
}